target datalayout = "e-m:e-p270:32:32-p271:32:32-p272:64:64-i64:64-i128:128-f80:128-n8:16:32:64-S128"
target triple = "x86_64-pc-linux-gnu"

%struct.Node = type { i32 }

; Function Attrs: nounwind uwtable
define dso_local ptr @query_or_expression_tree_mutator_impl(ptr noundef %0, ptr noundef %1, ptr noundef %2, i32 noundef %3) #0 {
  %5 = alloca ptr, align 8
  %6 = alloca ptr, align 8
  %7 = alloca ptr, align 8
  %8 = alloca ptr, align 8
  %9 = alloca i32, align 4
  store ptr %0, ptr %6, align 8
  store ptr %1, ptr %7, align 8
  store ptr %2, ptr %8, align 8
  store i32 %3, ptr %9, align 4
  %10 = load ptr, ptr %6, align 8
  %11 = icmp ne ptr %10, null
  br i1 %11, label %12, label %23

12:                                               ; preds = %4
  %13 = load ptr, ptr %6, align 8
  %14 = getelementptr inbounds nuw %struct.Node, ptr %13, i32 0, i32 0
  %15 = load i32, ptr %14, align 4
  %16 = icmp eq i32 %15, 67
  br i1 %16, label %17, label %23

17:                                               ; preds = %12
  %18 = load ptr, ptr %6, align 8
  %19 = load ptr, ptr %7, align 8
  %20 = load ptr, ptr %8, align 8
  %21 = load i32, ptr %9, align 4
  %22 = call ptr @query_tree_mutator_impl(ptr noundef %18, ptr noundef %19, ptr noundef %20, i32 noundef %21)
  store ptr %22, ptr %5, align 8
  br label %28

23:                                               ; preds = %12, %4
  %24 = load ptr, ptr %7, align 8
  %25 = load ptr, ptr %6, align 8
  %26 = load ptr, ptr %8, align 8
  %27 = call ptr %24(ptr noundef %25, ptr noundef %26)
  store ptr %27, ptr %5, align 8
  br label %28

28:                                               ; preds = %23, %17
  %29 = load ptr, ptr %5, align 8
  ret ptr %29
}